target datalayout = "e-m:e-p270:32:32-p271:32:32-p272:64:64-i64:64-i128:128-f80:128-n8:16:32:64-S128"
target triple = "x86_64-pc-linux-gnu"

%"class.open3d::visualization::glsl::GeometryRenderer.base" = type <{ ptr, %"class.std::shared_ptr", i8 }>
%"class.std::shared_ptr" = type { %"class.std::__shared_ptr" }
%"class.std::__shared_ptr" = type { ptr, %"class.std::__shared_count" }
%"class.std::__shared_count" = type { ptr }
%"class.open3d::visualization::glsl::SimpleShader.base" = type <{ %"class.open3d::visualization::glsl::ShaderWrapper", i32, i32, i32, i32, i32 }>
%"class.open3d::visualization::glsl::ShaderWrapper" = type { ptr, i32, i32, i32, i32, i32, i32, i8, i8, %"class.std::__cxx11::basic_string" }
%"class.std::__cxx11::basic_string" = type { %"struct.std::__cxx11::basic_string<char>::_Alloc_hider", i64, %union.anon }
%"struct.std::__cxx11::basic_string<char>::_Alloc_hider" = type { ptr }
%union.anon = type { i64, [8 x i8] }
%"class.open3d::visualization::glsl::GeometryRenderer" = type <{ ptr, %"class.std::shared_ptr", i8, [7 x i8] }>
%"class.open3d::visualization::RenderOption" = type <{ %"class.open3d::utility::IJsonConvertible", double, double, double, double, double, double, double, double, %"class.Eigen::Matrix.36", i32, i32, i8, [7 x i8], [4 x %"class.Eigen::Matrix.36"], [4 x %"class.Eigen::Matrix.36"], %"class.Eigen::Matrix.36", [4 x double], [4 x double], [4 x double], double, i32, i8, [3 x i8], i32, i32, i8, i8, [6 x i8], %"class.Eigen::Matrix.36", double, i32, i32, i8, [7 x i8] }>
%"class.open3d::utility::IJsonConvertible" = type { ptr }
%"class.Eigen::Matrix.36" = type { %"class.Eigen::PlainObjectBase.37" }
%"class.Eigen::PlainObjectBase.37" = type { %"class.Eigen::DenseStorage.44" }
%"class.Eigen::DenseStorage.44" = type { %"struct.Eigen::internal::plain_array.45" }
%"struct.Eigen::internal::plain_array.45" = type { [3 x double] }
%"class.open3d::visualization::glsl::OctreeRenderer" = type { %"class.open3d::visualization::glsl::GeometryRenderer.base", [7 x i8], %"class.open3d::visualization::glsl::SimpleShaderForOctreeLine", %"class.open3d::visualization::glsl::SimpleShaderForOctreeFace" }
%"class.open3d::visualization::glsl::SimpleShaderForOctreeLine" = type { %"class.open3d::visualization::glsl::SimpleShader.base", [4 x i8] }
%"class.open3d::visualization::glsl::SimpleShaderForOctreeFace" = type { %"class.open3d::visualization::glsl::SimpleShader.base", [4 x i8] }

; Function Attrs: mustprogress nounwind ssp uwtable
define linkonce_odr hidden noundef ptr @_ZNKSt12__shared_ptrIKN6open3d8geometry8GeometryELN9__gnu_cxx12_Lock_policyE2EE3getEv(ptr noundef nonnull align 8 dereferenceable(16) %0) #0 comdat align 2 {
  %2 = alloca ptr, align 8
  store ptr %0, ptr %2, align 8, !tbaa !225
  %3 = load ptr, ptr %2, align 8
  %4 = getelementptr inbounds nuw %"class.std::__shared_ptr", ptr %3, i32 0, i32 0
  %5 = load ptr, ptr %4, align 8, !tbaa !227
  ret ptr %5
}

; Function Attrs: mustprogress nounwind ssp uwtable
define linkonce_odr hidden noundef ptr @_ZNKSt19__shared_ptr_accessIKN6open3d8geometry8GeometryELN9__gnu_cxx12_Lock_policyE2ELb0ELb0EE6_M_getEv(ptr noundef nonnull align 1 dereferenceable(1) %0) #0 comdat align 2 {
  %2 = alloca ptr, align 8
  store ptr %0, ptr %2, align 8, !tbaa !223
  %3 = load ptr, ptr %2, align 8
  %4 = call noundef ptr @_ZNKSt12__shared_ptrIKN6open3d8geometry8GeometryELN9__gnu_cxx12_Lock_policyE2EE3getEv(ptr noundef nonnull align 8 dereferenceable(16) %3) #7
  ret ptr %4
}

; Function Attrs: mustprogress nounwind ssp uwtable
define linkonce_odr hidden noundef nonnull align 8 dereferenceable(48) ptr @_ZNKSt19__shared_ptr_accessIKN6open3d8geometry8GeometryELN9__gnu_cxx12_Lock_policyE2ELb0ELb0EEdeEv(ptr noundef nonnull align 1 dereferenceable(1) %0) #0 comdat align 2 {
  %2 = alloca ptr, align 8
  store ptr %0, ptr %2, align 8, !tbaa !223
  %3 = load ptr, ptr %2, align 8
  br label %4

4:                                                ; preds = %1
  br label %5

5:                                                ; preds = %4
  br label %6

6:                                                ; preds = %5
  %7 = call noundef ptr @_ZNKSt19__shared_ptr_accessIKN6open3d8geometry8GeometryELN9__gnu_cxx12_Lock_policyE2ELb0ELb0EE6_M_getEv(ptr noundef nonnull align 1 dereferenceable(1) %3) #7
  ret ptr %7
}

; Function Attrs: mustprogress nounwind ssp uwtable
define linkonce_odr hidden noundef ptr @_ZNKSt19__shared_ptr_accessIKN6open3d8geometry8GeometryELN9__gnu_cxx12_Lock_policyE2ELb0ELb0EEptEv(ptr noundef nonnull align 1 dereferenceable(1) %0) #0 comdat align 2 {
  %2 = alloca ptr, align 8
  store ptr %0, ptr %2, align 8, !tbaa !223
  %3 = load ptr, ptr %2, align 8
  %4 = call noundef ptr @_ZNKSt19__shared_ptr_accessIKN6open3d8geometry8GeometryELN9__gnu_cxx12_Lock_policyE2ELb0ELb0EE6_M_getEv(ptr noundef nonnull align 1 dereferenceable(1) %3) #7
  ret ptr %4
}

; Function Attrs: mustprogress ssp uwtable
define hidden noundef zeroext i1 @_ZN6open3d13visualization4glsl14OctreeRenderer6RenderERKNS0_12RenderOptionERKNS0_11ViewControlE(ptr noundef nonnull align 8 dereferenceable(224) %0, ptr noundef nonnull align 8 dereferenceable(497) %1, ptr noundef nonnull align 16 dereferenceable(728) %2) unnamed_addr #1 align 2 {
  %4 = alloca i1, align 1
  %5 = alloca ptr, align 8
  %6 = alloca ptr, align 8
  %7 = alloca ptr, align 8
  %8 = alloca i8, align 1
  store ptr %0, ptr %5, align 8, !tbaa !64
  store ptr %1, ptr %6, align 8, !tbaa !11
  store ptr %2, ptr %7, align 8, !tbaa !13
  %9 = load ptr, ptr %5, align 8
  %10 = getelementptr inbounds nuw %"class.open3d::visualization::glsl::GeometryRenderer", ptr %9, i32 0, i32 2
  %11 = load i8, ptr %10, align 8, !tbaa !15, !range !23, !noundef !24
  %12 = trunc i8 %11 to i1
  br i1 %12, label %13, label %20

13:                                               ; preds = %3
  %14 = getelementptr inbounds nuw %"class.open3d::visualization::glsl::GeometryRenderer", ptr %9, i32 0, i32 1
  %15 = call noundef ptr @_ZNKSt19__shared_ptr_accessIKN6open3d8geometry8GeometryELN9__gnu_cxx12_Lock_policyE2ELb0ELb0EEptEv(ptr noundef nonnull align 1 dereferenceable(1) %14) #7
  %16 = load ptr, ptr %15, align 8, !tbaa !9
  %17 = getelementptr inbounds ptr, ptr %16, i64 3
  %18 = load ptr, ptr %17, align 8
  %19 = call noundef zeroext i1 %18(ptr noundef nonnull align 8 dereferenceable(48) %15)
  br i1 %19, label %20, label %21

20:                                               ; preds = %13, %3
  store i1 true, ptr %4, align 1
  br label %56

21:                                               ; preds = %13
  %22 = load ptr, ptr %6, align 8, !tbaa !11
  %23 = getelementptr inbounds nuw %"class.open3d::visualization::RenderOption", ptr %22, i32 0, i32 27
  %24 = load i8, ptr %23, align 1, !tbaa !61, !range !23, !noundef !24
  %25 = trunc i8 %24 to i1
  br i1 %25, label %26, label %33

26:                                               ; preds = %21
  %27 = getelementptr inbounds nuw %"class.open3d::visualization::glsl::OctreeRenderer", ptr %9, i32 0, i32 2
  %28 = getelementptr inbounds nuw %"class.open3d::visualization::glsl::GeometryRenderer", ptr %9, i32 0, i32 1
  %29 = call noundef nonnull align 8 dereferenceable(48) ptr @_ZNKSt19__shared_ptr_accessIKN6open3d8geometry8GeometryELN9__gnu_cxx12_Lock_policyE2ELb0ELb0EEdeEv(ptr noundef nonnull align 1 dereferenceable(1) %28) #7
  %30 = load ptr, ptr %6, align 8, !tbaa !11
  %31 = load ptr, ptr %7, align 8, !tbaa !13
  %32 = call noundef zeroext i1 @_ZN6open3d13visualization4glsl13ShaderWrapper6RenderERKNS_8geometry8GeometryERKNS0_12RenderOptionERKNS0_11ViewControlE(ptr noundef nonnull align 8 dereferenceable(72) %27, ptr noundef nonnull align 8 dereferenceable(48) %29, ptr noundef nonnull align 8 dereferenceable(497) %30, ptr noundef nonnull align 16 dereferenceable(728) %31)
  store i1 %32, ptr %4, align 1
  br label %56

33:                                               ; preds = %21
  call void @llvm.lifetime.start.p0(i64 1, ptr %8) #7
  %34 = getelementptr inbounds nuw %"class.open3d::visualization::glsl::OctreeRenderer", ptr %9, i32 0, i32 3
  %35 = getelementptr inbounds nuw %"class.open3d::visualization::glsl::GeometryRenderer", ptr %9, i32 0, i32 1
  %36 = call noundef nonnull align 8 dereferenceable(48) ptr @_ZNKSt19__shared_ptr_accessIKN6open3d8geometry8GeometryELN9__gnu_cxx12_Lock_policyE2ELb0ELb0EEdeEv(ptr noundef nonnull align 1 dereferenceable(1) %35) #7
  %37 = load ptr, ptr %6, align 8, !tbaa !11
  %38 = load ptr, ptr %7, align 8, !tbaa !13
  %39 = call noundef zeroext i1 @_ZN6open3d13visualization4glsl13ShaderWrapper6RenderERKNS_8geometry8GeometryERKNS0_12RenderOptionERKNS0_11ViewControlE(ptr noundef nonnull align 8 dereferenceable(72) %34, ptr noundef nonnull align 8 dereferenceable(48) %36, ptr noundef nonnull align 8 dereferenceable(497) %37, ptr noundef nonnull align 16 dereferenceable(728) %38)
  %40 = zext i1 %39 to i8
  store i8 %40, ptr %8, align 1, !tbaa !27
  %41 = getelementptr inbounds nuw %"class.open3d::visualization::glsl::OctreeRenderer", ptr %9, i32 0, i32 2
  %42 = getelementptr inbounds nuw %"class.open3d::visualization::glsl::GeometryRenderer", ptr %9, i32 0, i32 1
  %43 = call noundef nonnull align 8 dereferenceable(48) ptr @_ZNKSt19__shared_ptr_accessIKN6open3d8geometry8GeometryELN9__gnu_cxx12_Lock_policyE2ELb0ELb0EEdeEv(ptr noundef nonnull align 1 dereferenceable(1) %42) #7
  %44 = load ptr, ptr %6, align 8, !tbaa !11
  %45 = load ptr, ptr %7, align 8, !tbaa !13
  %46 = call noundef zeroext i1 @_ZN6open3d13visualization4glsl13ShaderWrapper6RenderERKNS_8geometry8GeometryERKNS0_12RenderOptionERKNS0_11ViewControlE(ptr noundef nonnull align 8 dereferenceable(72) %41, ptr noundef nonnull align 8 dereferenceable(48) %43, ptr noundef nonnull align 8 dereferenceable(497) %44, ptr noundef nonnull align 16 dereferenceable(728) %45)
  %47 = zext i1 %46 to i32
  %48 = load i8, ptr %8, align 1, !tbaa !27, !range !23, !noundef !24
  %49 = trunc i8 %48 to i1
  %50 = zext i1 %49 to i32
  %51 = and i32 %50, %47
  %52 = icmp ne i32 %51, 0
  %53 = zext i1 %52 to i8
  store i8 %53, ptr %8, align 1, !tbaa !27
  %54 = load i8, ptr %8, align 1, !tbaa !27, !range !23, !noundef !24
  %55 = trunc i8 %54 to i1
  store i1 %55, ptr %4, align 1
  call void @llvm.lifetime.end.p0(i64 1, ptr %8) #7
  br label %56

56:                                               ; preds = %33, %26, %20
  %57 = load i1, ptr %4, align 1
  ret i1 %57
}